; Function Attrs: mustprogress uwtable
define internal fastcc void @_ZNSt8_Rb_treeISt17basic_string_viewIcSt11char_traitsIcEESt4pairIKS3_N9grpc_core17WeakRefCountedPtrINS6_12_GLOBAL__N_111XdsResolver10ClusterRefEEEESt10_Select1stISC_ESt4lessIS3_ESaISC_EE8_M_eraseEPSt13_Rb_tree_nodeISC_E(ptr noundef %__x) unnamed_addr #3 align 2 personality ptr @__gxx_personality_v0 {
entry:
  %cmp.not5 = icmp eq ptr %__x, null
  br i1 %cmp.not5, label %while.end, label %while.body

while.body:                                       ; preds = %entry, %_ZNSt8_Rb_treeISt17basic_string_viewIcSt11char_traitsIcEESt4pairIKS3_N9grpc_core17WeakRefCountedPtrINS6_12_GLOBAL__N_111XdsResolver10ClusterRefEEEESt10_Select1stISC_ESt4lessIS3_ESaISC_EE12_M_drop_nodeEPSt13_Rb_tree_nodeISC_E.exit
  %__x.addr.06 = phi ptr [ %__x.addr.0.val4, %_ZNSt8_Rb_treeISt17basic_string_viewIcSt11char_traitsIcEESt4pairIKS3_N9grpc_core17WeakRefCountedPtrINS6_12_GLOBAL__N_111XdsResolver10ClusterRefEEEESt10_Select1stISC_ESt4lessIS3_ESaISC_EE12_M_drop_nodeEPSt13_Rb_tree_nodeISC_E.exit ], [ %__x, %entry ]
  %0 = getelementptr i8, ptr %__x.addr.06, i64 24
  %__x.addr.0.val = load ptr, ptr %0, align 8
  tail call fastcc void @_ZNSt8_Rb_treeISt17basic_string_viewIcSt11char_traitsIcEESt4pairIKS3_N9grpc_core17WeakRefCountedPtrINS6_12_GLOBAL__N_111XdsResolver10ClusterRefEEEESt10_Select1stISC_ESt4lessIS3_ESaISC_EE8_M_eraseEPSt13_Rb_tree_nodeISC_E(ptr noundef %__x.addr.0.val)
  %1 = getelementptr i8, ptr %__x.addr.06, i64 16
  %__x.addr.0.val4 = load ptr, ptr %1, align 8
  %2 = getelementptr i8, ptr %__x.addr.06, i64 48
  %__p.val.i = load ptr, ptr %2, align 8
  %cmp.not.i.i.i.i.i.i = icmp eq ptr %__p.val.i, null
  br i1 %cmp.not.i.i.i.i.i.i, label %_ZNSt8_Rb_treeISt17basic_string_viewIcSt11char_traitsIcEESt4pairIKS3_N9grpc_core17WeakRefCountedPtrINS6_12_GLOBAL__N_111XdsResolver10ClusterRefEEEESt10_Select1stISC_ESt4lessIS3_ESaISC_EE12_M_drop_nodeEPSt13_Rb_tree_nodeISC_E.exit, label %if.then.i.i.i.i.i.i

if.then.i.i.i.i.i.i:                              ; preds = %while.body
  %refs_.i.i.i.i.i.i.i = getelementptr inbounds i8, ptr %__p.val.i, i64 8
  %3 = atomicrmw sub ptr %refs_.i.i.i.i.i.i.i, i64 1 acq_rel, align 8
  %cmp.not.i.i.i.i.i.i.i = icmp eq i64 %3, 1
  br i1 %cmp.not.i.i.i.i.i.i.i, label %delete.notnull.i.i.i.i.i.i.i, label %_ZNSt8_Rb_treeISt17basic_string_viewIcSt11char_traitsIcEESt4pairIKS3_N9grpc_core17WeakRefCountedPtrINS6_12_GLOBAL__N_111XdsResolver10ClusterRefEEEESt10_Select1stISC_ESt4lessIS3_ESaISC_EE12_M_drop_nodeEPSt13_Rb_tree_nodeISC_E.exit

delete.notnull.i.i.i.i.i.i.i:                     ; preds = %if.then.i.i.i.i.i.i
  %vtable.i.i.i.i.i.i.i = load ptr, ptr %__p.val.i, align 8
  %vfn.i.i.i.i.i.i.i = getelementptr inbounds i8, ptr %vtable.i.i.i.i.i.i.i, i64 16
  %4 = load ptr, ptr %vfn.i.i.i.i.i.i.i, align 8
  tail call void %4(ptr noundef nonnull align 8 dereferenceable(56) %__p.val.i) #28
  br label %_ZNSt8_Rb_treeISt17basic_string_viewIcSt11char_traitsIcEESt4pairIKS3_N9grpc_core17WeakRefCountedPtrINS6_12_GLOBAL__N_111XdsResolver10ClusterRefEEEESt10_Select1stISC_ESt4lessIS3_ESaISC_EE12_M_drop_nodeEPSt13_Rb_tree_nodeISC_E.exit

_ZNSt8_Rb_treeISt17basic_string_viewIcSt11char_traitsIcEESt4pairIKS3_N9grpc_core17WeakRefCountedPtrINS6_12_GLOBAL__N_111XdsResolver10ClusterRefEEEESt10_Select1stISC_ESt4lessIS3_ESaISC_EE12_M_drop_nodeEPSt13_Rb_tree_nodeISC_E.exit: ; preds = %while.body, %if.then.i.i.i.i.i.i, %delete.notnull.i.i.i.i.i.i.i
  tail call void @_ZdlPv(ptr noundef nonnull %__x.addr.06) #30
  %cmp.not = icmp eq ptr %__x.addr.0.val4, null
  br i1 %cmp.not, label %while.end, label %while.body, !llvm.loop !65

while.end:                                        ; preds = %_ZNSt8_Rb_treeISt17basic_string_viewIcSt11char_traitsIcEESt4pairIKS3_N9grpc_core17WeakRefCountedPtrINS6_12_GLOBAL__N_111XdsResolver10ClusterRefEEEESt10_Select1stISC_ESt4lessIS3_ESaISC_EE12_M_drop_nodeEPSt13_Rb_tree_nodeISC_E.exit, %entry
  ret void
}